target datalayout = "e-m:e-p270:32:32-p271:32:32-p272:64:64-i64:64-i128:128-f80:128-n8:16:32:64-S128"
target triple = "x86_64-unknown-linux-gnu"

@.str = private unnamed_addr constant [12 x i8] c"%s(%d): %s\0A\00", align 1

; Function Attrs: mustprogress uwtable
define dso_local noundef i32 @_ZN2EA8UnitTest12TestInternal17EATEST_VERIFY_IMPEbRiPKciS4_(i1 noundef zeroext %bExpression, ptr noundef nonnull align 4 dereferenceable(4) %nErrorCount, ptr noundef %pFile, i32 noundef %nLine, ptr noundef %pMessage) #2 {
entry:
  %bExpression.addr = alloca i8, align 1
  %nErrorCount.addr = alloca ptr, align 8
  %pFile.addr = alloca ptr, align 8
  %nLine.addr = alloca i32, align 4
  %pMessage.addr = alloca ptr, align 8
  %frombool = zext i1 %bExpression to i8
  store i8 %frombool, ptr %bExpression.addr, align 1
  store ptr %nErrorCount, ptr %nErrorCount.addr, align 8
  store ptr %pFile, ptr %pFile.addr, align 8
  store i32 %nLine, ptr %nLine.addr, align 4
  store ptr %pMessage, ptr %pMessage.addr, align 8
  %0 = load i8, ptr %bExpression.addr, align 1
  %tobool = trunc i8 %0 to i1
  br i1 %tobool, label %if.end, label %if.then

if.then:                                          ; preds = %entry
  %1 = load ptr, ptr %nErrorCount.addr, align 8
  %2 = load i32, ptr %1, align 4
  %inc = add nsw i32 %2, 1
  store i32 %inc, ptr %1, align 4
  %3 = load ptr, ptr %pFile.addr, align 8
  %4 = load i32, ptr %nLine.addr, align 4
  %5 = load ptr, ptr %pMessage.addr, align 8
  call void (ptr, ...) @_ZN2EA6EAMain6ReportEPKcz(ptr noundef @.str, ptr noundef %3, i32 noundef %4, ptr noundef %5)
  br label %if.end

if.end:                                           ; preds = %if.then, %entry
  %6 = load i8, ptr %bExpression.addr, align 1
  %tobool1 = trunc i8 %6 to i1
  %cond = select i1 %tobool1, i32 0, i32 1
  ret i32 %cond
}