; Function Attrs: mustprogress uwtable
define dso_local noundef i32 @_ZN2EA8UnitTest12TestInternal17EATEST_VERIFY_IMPEbRiPKciS4_(i1 noundef zeroext %bExpression, ptr nocapture noundef nonnull align 4 dereferenceable(4) %nErrorCount, ptr noundef %pFile, i32 noundef %nLine, ptr noundef %pMessage) local_unnamed_addr #0 {
entry:
  br i1 %bExpression, label %if.end, label %if.then

if.then:                                          ; preds = %entry
  %0 = load i32, ptr %nErrorCount, align 4
  %inc = add nsw i32 %0, 1
  store i32 %inc, ptr %nErrorCount, align 4
  tail call void (ptr, ...) @_ZN2EA6EAMain6ReportEPKcz(ptr noundef nonnull @.str, ptr noundef %pFile, i32 noundef %nLine, ptr noundef %pMessage)
  br label %if.end

if.end:                                           ; preds = %if.then, %entry
  %not.bExpression = xor i1 %bExpression, true
  %cond = zext i1 %not.bExpression to i32
  ret i32 %cond
}